; Function Attrs: mustprogress nofree norecurse nosync nounwind willreturn memory(argmem: read) uwtable
define hidden noundef zeroext i1 @_ZN15IntelJccErratum21is_jcc_erratum_branchEPK8MachNode(ptr nocapture noundef readonly %0) local_unnamed_addr #1 align 2 {
  %2 = getelementptr inbounds i8, ptr %0, i64 44
  %3 = load i32, ptr %2, align 4
  %4 = and i32 %3, 31
  %5 = icmp ne i32 %4, 30
  %6 = and i32 %3, 63
  %7 = icmp eq i32 %6, 62
  %or.cond = or i1 %5, %7
  br i1 %or.cond, label %8, label %11

8:                                                ; preds = %1
  %9 = and i32 %3, 15
  %10 = icmp eq i32 %9, 10
  br label %11

11:                                               ; preds = %1, %8
  %.0 = phi i1 [ %10, %8 ], [ true, %1 ]
  ret i1 %.0
}